; Function Attrs: nounwind uwtable
define void @lv_obj_delete_async(ptr noundef %0) local_unnamed_addr #0 {
  %.not = icmp eq ptr %0, null
  br i1 %.not, label %.preheader, label %2

.preheader:                                       ; preds = %1, %.preheader
  br label %.preheader

2:                                                ; preds = %1
  %3 = tail call i32 @lv_async_call(ptr noundef nonnull @lv_obj_delete_async_cb, ptr noundef nonnull %0) #6
  ret void
}